
problem:     file format elf64-x86-64


Disassembly of section .init:

00000000004005f0 <.init>:
  4005f0:	48 83 ec 08          	sub    rsp,0x8
  4005f4:	48 8b 05 fd 09 20 00 	mov    rax,QWORD PTR [rip+0x2009fd]        # 600ff8 <__gmon_start__@plt+0x200948>
  4005fb:	48 85 c0             	test   rax,rax
  4005fe:	74 05                	je     400605 <__isoc99_fscanf@plt-0x1b>
  400600:	e8 ab 00 00 00       	call   4006b0 <__gmon_start__@plt>
  400605:	48 83 c4 08          	add    rsp,0x8
  400609:	c3                   	ret    

Disassembly of section .plt:

0000000000400610 <__isoc99_fscanf@plt-0x10>:
  400610:	ff 35 f2 09 20 00    	push   QWORD PTR [rip+0x2009f2]        # 601008 <__gmon_start__@plt+0x200958>
  400616:	ff 25 f4 09 20 00    	jmp    QWORD PTR [rip+0x2009f4]        # 601010 <__gmon_start__@plt+0x200960>
  40061c:	0f 1f 40 00          	nop    DWORD PTR [rax+0x0]

0000000000400620 <__isoc99_fscanf@plt>:
  400620:	ff 25 f2 09 20 00    	jmp    QWORD PTR [rip+0x2009f2]        # 601018 <__gmon_start__@plt+0x200968>
  400626:	68 00 00 00 00       	push   0x0
  40062b:	e9 e0 ff ff ff       	jmp    400610 <__isoc99_fscanf@plt-0x10>

0000000000400630 <puts@plt>:
  400630:	ff 25 ea 09 20 00    	jmp    QWORD PTR [rip+0x2009ea]        # 601020 <__gmon_start__@plt+0x200970>
  400636:	68 01 00 00 00       	push   0x1
  40063b:	e9 d0 ff ff ff       	jmp    400610 <__isoc99_fscanf@plt-0x10>

0000000000400640 <__libc_start_main@plt>:
  400640:	ff 25 e2 09 20 00    	jmp    QWORD PTR [rip+0x2009e2]        # 601028 <__gmon_start__@plt+0x200978>
  400646:	68 02 00 00 00       	push   0x2
  40064b:	e9 c0 ff ff ff       	jmp    400610 <__isoc99_fscanf@plt-0x10>

0000000000400650 <fgets@plt>:
  400650:	ff 25 da 09 20 00    	jmp    QWORD PTR [rip+0x2009da]        # 601030 <__gmon_start__@plt+0x200980>
  400656:	68 03 00 00 00       	push   0x3
  40065b:	e9 b0 ff ff ff       	jmp    400610 <__isoc99_fscanf@plt-0x10>

0000000000400660 <strcmp@plt>:
  400660:	ff 25 d2 09 20 00    	jmp    QWORD PTR [rip+0x2009d2]        # 601038 <__gmon_start__@plt+0x200988>
  400666:	68 04 00 00 00       	push   0x4
  40066b:	e9 a0 ff ff ff       	jmp    400610 <__isoc99_fscanf@plt-0x10>

0000000000400670 <malloc@plt>:
  400670:	ff 25 ca 09 20 00    	jmp    QWORD PTR [rip+0x2009ca]        # 601040 <__gmon_start__@plt+0x200990>
  400676:	68 05 00 00 00       	push   0x5
  40067b:	e9 90 ff ff ff       	jmp    400610 <__isoc99_fscanf@plt-0x10>

0000000000400680 <setvbuf@plt>:
  400680:	ff 25 c2 09 20 00    	jmp    QWORD PTR [rip+0x2009c2]        # 601048 <__gmon_start__@plt+0x200998>
  400686:	68 06 00 00 00       	push   0x6
  40068b:	e9 80 ff ff ff       	jmp    400610 <__isoc99_fscanf@plt-0x10>

0000000000400690 <fopen@plt>:
  400690:	ff 25 ba 09 20 00    	jmp    QWORD PTR [rip+0x2009ba]        # 601050 <__gmon_start__@plt+0x2009a0>
  400696:	68 07 00 00 00       	push   0x7
  40069b:	e9 70 ff ff ff       	jmp    400610 <__isoc99_fscanf@plt-0x10>

00000000004006a0 <exit@plt>:
  4006a0:	ff 25 b2 09 20 00    	jmp    QWORD PTR [rip+0x2009b2]        # 601058 <__gmon_start__@plt+0x2009a8>
  4006a6:	68 08 00 00 00       	push   0x8
  4006ab:	e9 60 ff ff ff       	jmp    400610 <__isoc99_fscanf@plt-0x10>

Disassembly of section .plt.got:

00000000004006b0 <__gmon_start__@plt>:
  4006b0:	ff 25 42 09 20 00    	jmp    QWORD PTR [rip+0x200942]        # 600ff8 <__gmon_start__@plt+0x200948>
  4006b6:	66 90                	xchg   ax,ax

Disassembly of section .text:

00000000004006c0 <.text>:
  4006c0:	31 ed                	xor    ebp,ebp
  4006c2:	49 89 d1             	mov    r9,rdx
  4006c5:	5e                   	pop    rsi
  4006c6:	48 89 e2             	mov    rdx,rsp
  4006c9:	48 83 e4 f0          	and    rsp,0xfffffffffffffff0
  4006cd:	50                   	push   rax
  4006ce:	54                   	push   rsp
  4006cf:	49 c7 c0 30 09 40 00 	mov    r8,0x400930
  4006d6:	48 c7 c1 c0 08 40 00 	mov    rcx,0x4008c0
  4006dd:	48 c7 c7 59 08 40 00 	mov    rdi,0x400859
  4006e4:	e8 57 ff ff ff       	call   400640 <__libc_start_main@plt>
  4006e9:	f4                   	hlt    
  4006ea:	66 0f 1f 44 00 00    	nop    WORD PTR [rax+rax*1+0x0]
  4006f0:	b8 77 10 60 00       	mov    eax,0x601077
  4006f5:	55                   	push   rbp
  4006f6:	48 2d 70 10 60 00    	sub    rax,0x601070
  4006fc:	48 83 f8 0e          	cmp    rax,0xe
  400700:	48 89 e5             	mov    rbp,rsp
  400703:	76 1b                	jbe    400720 <__gmon_start__@plt+0x70>
  400705:	b8 00 00 00 00       	mov    eax,0x0
  40070a:	48 85 c0             	test   rax,rax
  40070d:	74 11                	je     400720 <__gmon_start__@plt+0x70>
  40070f:	5d                   	pop    rbp
  400710:	bf 70 10 60 00       	mov    edi,0x601070
  400715:	ff e0                	jmp    rax
  400717:	66 0f 1f 84 00 00 00 	nop    WORD PTR [rax+rax*1+0x0]
  40071e:	00 00 
  400720:	5d                   	pop    rbp
  400721:	c3                   	ret    
  400722:	0f 1f 40 00          	nop    DWORD PTR [rax+0x0]
  400726:	66 2e 0f 1f 84 00 00 	cs nop WORD PTR [rax+rax*1+0x0]
  40072d:	00 00 00 
  400730:	be 70 10 60 00       	mov    esi,0x601070
  400735:	55                   	push   rbp
  400736:	48 81 ee 70 10 60 00 	sub    rsi,0x601070
  40073d:	48 c1 fe 03          	sar    rsi,0x3
  400741:	48 89 e5             	mov    rbp,rsp
  400744:	48 89 f0             	mov    rax,rsi
  400747:	48 c1 e8 3f          	shr    rax,0x3f
  40074b:	48 01 c6             	add    rsi,rax
  40074e:	48 d1 fe             	sar    rsi,1
  400751:	74 15                	je     400768 <__gmon_start__@plt+0xb8>
  400753:	b8 00 00 00 00       	mov    eax,0x0
  400758:	48 85 c0             	test   rax,rax
  40075b:	74 0b                	je     400768 <__gmon_start__@plt+0xb8>
  40075d:	5d                   	pop    rbp
  40075e:	bf 70 10 60 00       	mov    edi,0x601070
  400763:	ff e0                	jmp    rax
  400765:	0f 1f 00             	nop    DWORD PTR [rax]
  400768:	5d                   	pop    rbp
  400769:	c3                   	ret    
  40076a:	66 0f 1f 44 00 00    	nop    WORD PTR [rax+rax*1+0x0]
  400770:	80 3d 11 09 20 00 00 	cmp    BYTE PTR [rip+0x200911],0x0        # 601088 <stdin@GLIBC_2.2.5+0x8>
  400777:	75 11                	jne    40078a <__gmon_start__@plt+0xda>
  400779:	55                   	push   rbp
  40077a:	48 89 e5             	mov    rbp,rsp
  40077d:	e8 6e ff ff ff       	call   4006f0 <__gmon_start__@plt+0x40>
  400782:	5d                   	pop    rbp
  400783:	c6 05 fe 08 20 00 01 	mov    BYTE PTR [rip+0x2008fe],0x1        # 601088 <stdin@GLIBC_2.2.5+0x8>
  40078a:	f3 c3                	repz ret 
  40078c:	0f 1f 40 00          	nop    DWORD PTR [rax+0x0]
  400790:	bf 20 0e 60 00       	mov    edi,0x600e20
  400795:	48 83 3f 00          	cmp    QWORD PTR [rdi],0x0
  400799:	75 05                	jne    4007a0 <__gmon_start__@plt+0xf0>
  40079b:	eb 93                	jmp    400730 <__gmon_start__@plt+0x80>
  40079d:	0f 1f 00             	nop    DWORD PTR [rax]
  4007a0:	b8 00 00 00 00       	mov    eax,0x0
  4007a5:	48 85 c0             	test   rax,rax
  4007a8:	74 f1                	je     40079b <__gmon_start__@plt+0xeb>
  4007aa:	55                   	push   rbp
  4007ab:	48 89 e5             	mov    rbp,rsp
  4007ae:	ff d0                	call   rax
  4007b0:	5d                   	pop    rbp
  4007b1:	e9 7a ff ff ff       	jmp    400730 <__gmon_start__@plt+0x80>
  4007b6:	55                   	push   rbp
  4007b7:	48 89 e5             	mov    rbp,rsp
  4007ba:	48 83 ec 20          	sub    rsp,0x20
  4007be:	48 89 7d e8          	mov    QWORD PTR [rbp-0x18],rdi
  4007c2:	48 89 75 e0          	mov    QWORD PTR [rbp-0x20],rsi
  4007c6:	be 44 09 40 00       	mov    esi,0x400944
  4007cb:	bf 46 09 40 00       	mov    edi,0x400946
  4007d0:	e8 bb fe ff ff       	call   400690 <fopen@plt>
  4007d5:	48 89 45 f8          	mov    QWORD PTR [rbp-0x8],rax
  4007d9:	bf 28 00 00 00       	mov    edi,0x28
  4007de:	e8 8d fe ff ff       	call   400670 <malloc@plt>
  4007e3:	48 89 45 f0          	mov    QWORD PTR [rbp-0x10],rax
  4007e7:	48 8b 55 f0          	mov    rdx,QWORD PTR [rbp-0x10]
  4007eb:	48 8b 45 f8          	mov    rax,QWORD PTR [rbp-0x8]
  4007ef:	be 4f 09 40 00       	mov    esi,0x40094f
  4007f4:	48 89 c7             	mov    rdi,rax
  4007f7:	b8 00 00 00 00       	mov    eax,0x0
  4007fc:	e8 1f fe ff ff       	call   400620 <__isoc99_fscanf@plt>
  400801:	48 83 7d e8 01       	cmp    QWORD PTR [rbp-0x18],0x1
  400806:	75 2b                	jne    400833 <__gmon_start__@plt+0x183>
  400808:	48 8b 45 e0          	mov    rax,QWORD PTR [rbp-0x20]
  40080c:	be 52 09 40 00       	mov    esi,0x400952
  400811:	48 89 c7             	mov    rdi,rax
  400814:	e8 47 fe ff ff       	call   400660 <strcmp@plt>
  400819:	85 c0                	test   eax,eax
  40081b:	75 16                	jne    400833 <__gmon_start__@plt+0x183>
  40081d:	48 8b 45 f0          	mov    rax,QWORD PTR [rbp-0x10]
  400821:	48 89 c7             	mov    rdi,rax
  400824:	e8 07 fe ff ff       	call   400630 <puts@plt>
  400829:	bf 00 00 00 00       	mov    edi,0x0
  40082e:	e8 6d fe ff ff       	call   4006a0 <exit@plt>
  400833:	90                   	nop
  400834:	c9                   	leave  
  400835:	c3                   	ret    
  400836:	55                   	push   rbp
  400837:	48 89 e5             	mov    rbp,rsp
  40083a:	48 83 ec 10          	sub    rsp,0x10
  40083e:	48 8b 15 3b 08 20 00 	mov    rdx,QWORD PTR [rip+0x20083b]        # 601080 <stdin@GLIBC_2.2.5>
  400845:	48 8d 45 ff          	lea    rax,[rbp-0x1]
  400849:	be 3c 00 00 00       	mov    esi,0x3c
  40084e:	48 89 c7             	mov    rdi,rax
  400851:	e8 fa fd ff ff       	call   400650 <fgets@plt>
  400856:	90                   	nop
  400857:	c9                   	leave  
  400858:	c3                   	ret    
  400859:	55                   	push   rbp
  40085a:	48 89 e5             	mov    rbp,rsp
  40085d:	48 8b 05 1c 08 20 00 	mov    rax,QWORD PTR [rip+0x20081c]        # 601080 <stdin@GLIBC_2.2.5>
  400864:	b9 00 00 00 00       	mov    ecx,0x0
  400869:	ba 02 00 00 00       	mov    edx,0x2
  40086e:	be 00 00 00 00       	mov    esi,0x0
  400873:	48 89 c7             	mov    rdi,rax
  400876:	e8 05 fe ff ff       	call   400680 <setvbuf@plt>
  40087b:	48 8b 05 ee 07 20 00 	mov    rax,QWORD PTR [rip+0x2007ee]        # 601070 <stdout@GLIBC_2.2.5>
  400882:	b9 00 00 00 00       	mov    ecx,0x0
  400887:	ba 02 00 00 00       	mov    edx,0x2
  40088c:	be 00 00 00 00       	mov    esi,0x0
  400891:	48 89 c7             	mov    rdi,rax
  400894:	e8 e7 fd ff ff       	call   400680 <setvbuf@plt>
  400899:	bf 5d 09 40 00       	mov    edi,0x40095d
  40089e:	e8 8d fd ff ff       	call   400630 <puts@plt>
  4008a3:	b8 00 00 00 00       	mov    eax,0x0
  4008a8:	e8 89 ff ff ff       	call   400836 <__gmon_start__@plt+0x186>
  4008ad:	b8 00 00 00 00       	mov    eax,0x0
  4008b2:	5d                   	pop    rbp
  4008b3:	c3                   	ret    
  4008b4:	66 2e 0f 1f 84 00 00 	cs nop WORD PTR [rax+rax*1+0x0]
  4008bb:	00 00 00 
  4008be:	66 90                	xchg   ax,ax
  4008c0:	41 57                	push   r15
  4008c2:	41 56                	push   r14
  4008c4:	41 89 ff             	mov    r15d,edi
  4008c7:	41 55                	push   r13
  4008c9:	41 54                	push   r12
  4008cb:	4c 8d 25 3e 05 20 00 	lea    r12,[rip+0x20053e]        # 600e10 <__gmon_start__@plt+0x200760>
  4008d2:	55                   	push   rbp
  4008d3:	48 8d 2d 3e 05 20 00 	lea    rbp,[rip+0x20053e]        # 600e18 <__gmon_start__@plt+0x200768>
  4008da:	53                   	push   rbx
  4008db:	49 89 f6             	mov    r14,rsi
  4008de:	49 89 d5             	mov    r13,rdx
  4008e1:	4c 29 e5             	sub    rbp,r12
  4008e4:	48 83 ec 08          	sub    rsp,0x8
  4008e8:	48 c1 fd 03          	sar    rbp,0x3
  4008ec:	e8 ff fc ff ff       	call   4005f0 <__isoc99_fscanf@plt-0x30>
  4008f1:	48 85 ed             	test   rbp,rbp
  4008f4:	74 20                	je     400916 <__gmon_start__@plt+0x266>
  4008f6:	31 db                	xor    ebx,ebx
  4008f8:	0f 1f 84 00 00 00 00 	nop    DWORD PTR [rax+rax*1+0x0]
  4008ff:	00 
  400900:	4c 89 ea             	mov    rdx,r13
  400903:	4c 89 f6             	mov    rsi,r14
  400906:	44 89 ff             	mov    edi,r15d
  400909:	41 ff 14 dc          	call   QWORD PTR [r12+rbx*8]
  40090d:	48 83 c3 01          	add    rbx,0x1
  400911:	48 39 eb             	cmp    rbx,rbp
  400914:	75 ea                	jne    400900 <__gmon_start__@plt+0x250>
  400916:	48 83 c4 08          	add    rsp,0x8
  40091a:	5b                   	pop    rbx
  40091b:	5d                   	pop    rbp
  40091c:	41 5c                	pop    r12
  40091e:	41 5d                	pop    r13
  400920:	41 5e                	pop    r14
  400922:	41 5f                	pop    r15
  400924:	c3                   	ret    
  400925:	90                   	nop
  400926:	66 2e 0f 1f 84 00 00 	cs nop WORD PTR [rax+rax*1+0x0]
  40092d:	00 00 00 
  400930:	f3 c3                	repz ret 

Disassembly of section .fini:

0000000000400934 <.fini>:
  400934:	48 83 ec 08          	sub    rsp,0x8
  400938:	48 83 c4 08          	add    rsp,0x8
  40093c:	c3                   	ret    
